target datalayout = "e-m:e-p270:32:32-p271:32:32-p272:64:64-i64:64-i128:128-f80:128-n8:16:32:64-S128"
target triple = "x86_64-pc-linux-gnu"

%struct.H5O_shared_t = type { i32, ptr, i32, %union.anon }
%union.anon = type { %struct.H5O_mesg_loc_t }
%struct.H5O_mesg_loc_t = type { i32, i64 }
%struct.H5A_t = type { %struct.H5O_shared_t, %struct.H5O_loc_t, i8, %struct.H5G_name_t, ptr }
%struct.H5O_loc_t = type { ptr, i64, i8 }
%struct.H5G_name_t = type { ptr, ptr, i32 }
%struct.H5A_shared_t = type { i8, ptr, i32, ptr, i64, ptr, i64, ptr, i64, i32, i32 }

@H5O_init_g = external global i8, align 1
@H5_libterm_g = external global i8, align 1
@.str.4 = private unnamed_addr constant [103 x i8] c"generated/home/dtcxzyw/WorkSpace/Projects/compilers/llvm-opt-benchmark/bench/hdf5/hdf5/src/H5Oshared.h\00", align 1
@H5E_OHDR_g = external global i64, align 8
@H5E_CANTGET_g = external global i64, align 8
@__func__.H5O__attr_shared_size = private unnamed_addr constant [22 x i8] c"H5O__attr_shared_size\00", align 1
@.str.26 = private unnamed_addr constant [50 x i8] c"unable to retrieve encoded size of shared message\00", align 1
@.str.27 = private unnamed_addr constant [50 x i8] c"unable to retrieve encoded size of native message\00", align 1

; Function Attrs: nounwind uwtable
define internal i64 @H5O__attr_size(ptr noundef %0, ptr noundef %1) #1 {
  %3 = alloca ptr, align 8
  %4 = alloca ptr, align 8
  %5 = alloca ptr, align 8
  %6 = alloca i64, align 8
  %7 = alloca i64, align 8
  store ptr %0, ptr %3, align 8, !tbaa !3
  store ptr %1, ptr %4, align 8, !tbaa !18
  call void @llvm.lifetime.start.p0(i64 8, ptr %5) #9
  %8 = load ptr, ptr %4, align 8, !tbaa !18
  store ptr %8, ptr %5, align 8, !tbaa !27
  call void @llvm.lifetime.start.p0(i64 8, ptr %6) #9
  call void @llvm.lifetime.start.p0(i64 8, ptr %7) #9
  store i64 0, ptr %7, align 8, !tbaa !14
  %9 = load i8, ptr @H5O_init_g, align 1, !tbaa !19, !range !21, !noundef !22
  %10 = trunc i8 %9 to i1
  br i1 %10, label %15, label %11

11:                                               ; preds = %2
  %12 = load i8, ptr @H5_libterm_g, align 1, !tbaa !19, !range !21, !noundef !22
  %13 = trunc i8 %12 to i1
  %14 = xor i1 %13, true
  br label %15

15:                                               ; preds = %11, %2
  %16 = phi i1 [ true, %2 ], [ %14, %11 ]
  %17 = xor i1 %16, true
  %18 = xor i1 %17, true
  %19 = zext i1 %18 to i32
  %20 = sext i32 %19 to i64
  %21 = call i64 @llvm.expect.i64(i64 %20, i64 1)
  %22 = icmp ne i64 %21, 0
  br i1 %22, label %23, label %134

23:                                               ; preds = %15
  store i64 8, ptr %7, align 8, !tbaa !14
  %24 = load ptr, ptr %5, align 8, !tbaa !27
  %25 = getelementptr inbounds nuw %struct.H5A_t, ptr %24, i32 0, i32 4
  %26 = load ptr, ptr %25, align 8, !tbaa !33
  %27 = getelementptr inbounds nuw %struct.H5A_shared_t, ptr %26, i32 0, i32 1
  %28 = load ptr, ptr %27, align 8, !tbaa !65
  %29 = call i64 @strlen(ptr noundef %28) #10
  %30 = add i64 %29, 1
  store i64 %30, ptr %6, align 8, !tbaa !14
  %31 = load ptr, ptr %5, align 8, !tbaa !27
  %32 = getelementptr inbounds nuw %struct.H5A_t, ptr %31, i32 0, i32 4
  %33 = load ptr, ptr %32, align 8, !tbaa !33
  %34 = getelementptr inbounds nuw %struct.H5A_shared_t, ptr %33, i32 0, i32 0
  %35 = load i8, ptr %34, align 8, !tbaa !39
  %36 = zext i8 %35 to i32
  %37 = icmp eq i32 %36, 1
  br i1 %37, label %38, label %69

38:                                               ; preds = %23
  %39 = load i64, ptr %6, align 8, !tbaa !14
  %40 = add i64 %39, 7
  %41 = udiv i64 %40, 8
  %42 = mul i64 8, %41
  %43 = load ptr, ptr %5, align 8, !tbaa !27
  %44 = getelementptr inbounds nuw %struct.H5A_t, ptr %43, i32 0, i32 4
  %45 = load ptr, ptr %44, align 8, !tbaa !33
  %46 = getelementptr inbounds nuw %struct.H5A_shared_t, ptr %45, i32 0, i32 4
  %47 = load i64, ptr %46, align 8, !tbaa !62
  %48 = add i64 %47, 7
  %49 = udiv i64 %48, 8
  %50 = mul i64 8, %49
  %51 = add i64 %42, %50
  %52 = load ptr, ptr %5, align 8, !tbaa !27
  %53 = getelementptr inbounds nuw %struct.H5A_t, ptr %52, i32 0, i32 4
  %54 = load ptr, ptr %53, align 8, !tbaa !33
  %55 = getelementptr inbounds nuw %struct.H5A_shared_t, ptr %54, i32 0, i32 6
  %56 = load i64, ptr %55, align 8, !tbaa !63
  %57 = add i64 %56, 7
  %58 = udiv i64 %57, 8
  %59 = mul i64 8, %58
  %60 = add i64 %51, %59
  %61 = load ptr, ptr %5, align 8, !tbaa !27
  %62 = getelementptr inbounds nuw %struct.H5A_t, ptr %61, i32 0, i32 4
  %63 = load ptr, ptr %62, align 8, !tbaa !33
  %64 = getelementptr inbounds nuw %struct.H5A_shared_t, ptr %63, i32 0, i32 8
  %65 = load i64, ptr %64, align 8, !tbaa !67
  %66 = add i64 %60, %65
  %67 = load i64, ptr %7, align 8, !tbaa !14
  %68 = add i64 %67, %66
  store i64 %68, ptr %7, align 8, !tbaa !14
  br label %133

69:                                               ; preds = %23
  %70 = load ptr, ptr %5, align 8, !tbaa !27
  %71 = getelementptr inbounds nuw %struct.H5A_t, ptr %70, i32 0, i32 4
  %72 = load ptr, ptr %71, align 8, !tbaa !33
  %73 = getelementptr inbounds nuw %struct.H5A_shared_t, ptr %72, i32 0, i32 0
  %74 = load i8, ptr %73, align 8, !tbaa !39
  %75 = zext i8 %74 to i32
  %76 = icmp eq i32 %75, 2
  br i1 %76, label %77, label %99

77:                                               ; preds = %69
  %78 = load i64, ptr %6, align 8, !tbaa !14
  %79 = load ptr, ptr %5, align 8, !tbaa !27
  %80 = getelementptr inbounds nuw %struct.H5A_t, ptr %79, i32 0, i32 4
  %81 = load ptr, ptr %80, align 8, !tbaa !33
  %82 = getelementptr inbounds nuw %struct.H5A_shared_t, ptr %81, i32 0, i32 4
  %83 = load i64, ptr %82, align 8, !tbaa !62
  %84 = add i64 %78, %83
  %85 = load ptr, ptr %5, align 8, !tbaa !27
  %86 = getelementptr inbounds nuw %struct.H5A_t, ptr %85, i32 0, i32 4
  %87 = load ptr, ptr %86, align 8, !tbaa !33
  %88 = getelementptr inbounds nuw %struct.H5A_shared_t, ptr %87, i32 0, i32 6
  %89 = load i64, ptr %88, align 8, !tbaa !63
  %90 = add i64 %84, %89
  %91 = load ptr, ptr %5, align 8, !tbaa !27
  %92 = getelementptr inbounds nuw %struct.H5A_t, ptr %91, i32 0, i32 4
  %93 = load ptr, ptr %92, align 8, !tbaa !33
  %94 = getelementptr inbounds nuw %struct.H5A_shared_t, ptr %93, i32 0, i32 8
  %95 = load i64, ptr %94, align 8, !tbaa !67
  %96 = add i64 %90, %95
  %97 = load i64, ptr %7, align 8, !tbaa !14
  %98 = add i64 %97, %96
  store i64 %98, ptr %7, align 8, !tbaa !14
  br label %132

99:                                               ; preds = %69
  %100 = load ptr, ptr %5, align 8, !tbaa !27
  %101 = getelementptr inbounds nuw %struct.H5A_t, ptr %100, i32 0, i32 4
  %102 = load ptr, ptr %101, align 8, !tbaa !33
  %103 = getelementptr inbounds nuw %struct.H5A_shared_t, ptr %102, i32 0, i32 0
  %104 = load i8, ptr %103, align 8, !tbaa !39
  %105 = zext i8 %104 to i32
  %106 = icmp eq i32 %105, 3
  br i1 %106, label %107, label %130

107:                                              ; preds = %99
  %108 = load i64, ptr %6, align 8, !tbaa !14
  %109 = add i64 1, %108
  %110 = load ptr, ptr %5, align 8, !tbaa !27
  %111 = getelementptr inbounds nuw %struct.H5A_t, ptr %110, i32 0, i32 4
  %112 = load ptr, ptr %111, align 8, !tbaa !33
  %113 = getelementptr inbounds nuw %struct.H5A_shared_t, ptr %112, i32 0, i32 4
  %114 = load i64, ptr %113, align 8, !tbaa !62
  %115 = add i64 %109, %114
  %116 = load ptr, ptr %5, align 8, !tbaa !27
  %117 = getelementptr inbounds nuw %struct.H5A_t, ptr %116, i32 0, i32 4
  %118 = load ptr, ptr %117, align 8, !tbaa !33
  %119 = getelementptr inbounds nuw %struct.H5A_shared_t, ptr %118, i32 0, i32 6
  %120 = load i64, ptr %119, align 8, !tbaa !63
  %121 = add i64 %115, %120
  %122 = load ptr, ptr %5, align 8, !tbaa !27
  %123 = getelementptr inbounds nuw %struct.H5A_t, ptr %122, i32 0, i32 4
  %124 = load ptr, ptr %123, align 8, !tbaa !33
  %125 = getelementptr inbounds nuw %struct.H5A_shared_t, ptr %124, i32 0, i32 8
  %126 = load i64, ptr %125, align 8, !tbaa !67
  %127 = add i64 %121, %126
  %128 = load i64, ptr %7, align 8, !tbaa !14
  %129 = add i64 %128, %127
  store i64 %129, ptr %7, align 8, !tbaa !14
  br label %131

130:                                              ; preds = %99
  br label %131

131:                                              ; preds = %130, %107
  br label %132

132:                                              ; preds = %131, %77
  br label %133

133:                                              ; preds = %132, %38
  br label %134

134:                                              ; preds = %133, %15
  %135 = load i64, ptr %7, align 8, !tbaa !14
  call void @llvm.lifetime.end.p0(i64 8, ptr %7) #9
  call void @llvm.lifetime.end.p0(i64 8, ptr %6) #9
  call void @llvm.lifetime.end.p0(i64 8, ptr %5) #9
  ret i64 %135
}

; Function Attrs: inlinehint nounwind uwtable
define internal i64 @H5O__attr_shared_size(ptr noundef %0, i1 noundef zeroext %1, ptr noundef %2) #0 {
  %4 = alloca ptr, align 8
  %5 = alloca i8, align 1
  %6 = alloca ptr, align 8
  %7 = alloca ptr, align 8
  %8 = alloca i64, align 8
  %9 = alloca i8, align 1
  store ptr %0, ptr %4, align 8, !tbaa !3
  %10 = zext i1 %1 to i8
  store i8 %10, ptr %5, align 1, !tbaa !19
  store ptr %2, ptr %6, align 8, !tbaa !18
  call void @llvm.lifetime.start.p0(i64 8, ptr %7) #9
  %11 = load ptr, ptr %6, align 8, !tbaa !18
  store ptr %11, ptr %7, align 8, !tbaa !23
  call void @llvm.lifetime.start.p0(i64 8, ptr %8) #9
  store i64 0, ptr %8, align 8, !tbaa !14
  call void @llvm.lifetime.start.p0(i64 1, ptr %9) #9
  store i8 0, ptr %9, align 1, !tbaa !19
  %12 = load i8, ptr @H5O_init_g, align 1, !tbaa !19, !range !21, !noundef !22
  %13 = trunc i8 %12 to i1
  br i1 %13, label %18, label %14

14:                                               ; preds = %3
  %15 = load i8, ptr @H5_libterm_g, align 1, !tbaa !19, !range !21, !noundef !22
  %16 = trunc i8 %15 to i1
  %17 = xor i1 %16, true
  br label %18

18:                                               ; preds = %14, %3
  %19 = phi i1 [ true, %3 ], [ %17, %14 ]
  %20 = xor i1 %19, true
  %21 = xor i1 %20, true
  %22 = zext i1 %21 to i32
  %23 = sext i32 %22 to i64
  %24 = call i64 @llvm.expect.i64(i64 %23, i64 1)
  %25 = icmp ne i64 %24, 0
  br i1 %25, label %26, label %93

26:                                               ; preds = %18
  %27 = load ptr, ptr %7, align 8, !tbaa !23
  %28 = getelementptr inbounds nuw %struct.H5O_shared_t, ptr %27, i32 0, i32 0
  %29 = load i32, ptr %28, align 8, !tbaa !25
  %30 = icmp eq i32 %29, 1
  br i1 %30, label %36, label %31

31:                                               ; preds = %26
  %32 = load ptr, ptr %7, align 8, !tbaa !23
  %33 = getelementptr inbounds nuw %struct.H5O_shared_t, ptr %32, i32 0, i32 0
  %34 = load i32, ptr %33, align 8, !tbaa !25
  %35 = icmp eq i32 %34, 2
  br i1 %35, label %36, label %37

36:                                               ; preds = %31, %26
  br i1 true, label %38, label %66

37:                                               ; preds = %31
  br i1 false, label %38, label %66

38:                                               ; preds = %37, %36
  %39 = load i8, ptr %5, align 1, !tbaa !19, !range !21, !noundef !22
  %40 = trunc i8 %39 to i1
  br i1 %40, label %66, label %41

41:                                               ; preds = %38
  %42 = load ptr, ptr %4, align 8, !tbaa !3
  %43 = load ptr, ptr %7, align 8, !tbaa !23
  %44 = call i64 @H5O__shared_size(ptr noundef %42, ptr noundef %43)
  store i64 %44, ptr %8, align 8, !tbaa !14
  %45 = icmp eq i64 0, %44
  br i1 %45, label %46, label %65

46:                                               ; preds = %41
  br label %47

47:                                               ; preds = %46
  br label %48

48:                                               ; preds = %47
  br label %49

49:                                               ; preds = %48
  %50 = load i64, ptr @H5E_OHDR_g, align 8, !tbaa !14
  %51 = load i64, ptr @H5E_CANTGET_g, align 8, !tbaa !14
  %52 = call i32 (ptr, ptr, i32, i64, i64, ptr, ...) @H5E_printf_stack(ptr noundef @.str.4, ptr noundef @__func__.H5O__attr_shared_size, i32 noundef 170, i64 noundef %50, i64 noundef %51, ptr noundef @.str.26)
  br label %53

53:                                               ; preds = %49
  br label %54

54:                                               ; preds = %53
  store i8 1, ptr %9, align 1, !tbaa !19
  %55 = load i8, ptr %9, align 1, !tbaa !19, !range !21, !noundef !22
  %56 = trunc i8 %55 to i1
  %57 = zext i1 %56 to i8
  store i8 %57, ptr %9, align 1, !tbaa !19
  br label %58

58:                                               ; preds = %54
  br label %59

59:                                               ; preds = %58
  br label %60

60:                                               ; preds = %59
  store i64 0, ptr %8, align 8, !tbaa !14
  br label %92

61:                                               ; No predecessors!
  br label %62

62:                                               ; preds = %61
  br label %63

63:                                               ; preds = %62
  br label %64

64:                                               ; preds = %63
  br label %65

65:                                               ; preds = %64, %41
  br label %91

66:                                               ; preds = %38, %37, %36
  %67 = load ptr, ptr %4, align 8, !tbaa !3
  %68 = load ptr, ptr %6, align 8, !tbaa !18
  %69 = call i64 @H5O__attr_size(ptr noundef %67, ptr noundef %68)
  store i64 %69, ptr %8, align 8, !tbaa !14
  %70 = icmp eq i64 0, %69
  br i1 %70, label %71, label %90

71:                                               ; preds = %66
  br label %72

72:                                               ; preds = %71
  br label %73

73:                                               ; preds = %72
  br label %74

74:                                               ; preds = %73
  %75 = load i64, ptr @H5E_OHDR_g, align 8, !tbaa !14
  %76 = load i64, ptr @H5E_CANTGET_g, align 8, !tbaa !14
  %77 = call i32 (ptr, ptr, i32, i64, i64, ptr, ...) @H5E_printf_stack(ptr noundef @.str.4, ptr noundef @__func__.H5O__attr_shared_size, i32 noundef 175, i64 noundef %75, i64 noundef %76, ptr noundef @.str.27)
  br label %78

78:                                               ; preds = %74
  br label %79

79:                                               ; preds = %78
  store i8 1, ptr %9, align 1, !tbaa !19
  %80 = load i8, ptr %9, align 1, !tbaa !19, !range !21, !noundef !22
  %81 = trunc i8 %80 to i1
  %82 = zext i1 %81 to i8
  store i8 %82, ptr %9, align 1, !tbaa !19
  br label %83

83:                                               ; preds = %79
  br label %84

84:                                               ; preds = %83
  br label %85

85:                                               ; preds = %84
  store i64 0, ptr %8, align 8, !tbaa !14
  br label %92

86:                                               ; No predecessors!
  br label %87

87:                                               ; preds = %86
  br label %88

88:                                               ; preds = %87
  br label %89

89:                                               ; preds = %88
  br label %90

90:                                               ; preds = %89, %66
  br label %91

91:                                               ; preds = %90, %65
  br label %92

92:                                               ; preds = %91, %85, %60
  br label %93

93:                                               ; preds = %92, %18
  %94 = load i64, ptr %8, align 8, !tbaa !14
  call void @llvm.lifetime.end.p0(i64 1, ptr %9) #9
  call void @llvm.lifetime.end.p0(i64 8, ptr %8) #9
  call void @llvm.lifetime.end.p0(i64 8, ptr %7) #9
  ret i64 %94
}