; Function Attrs: inlinehint nounwind uwtable
define internal i64 @H5O__attr_shared_size(ptr noundef %0, i1 noundef zeroext %1, ptr noundef %2) #0 {
  %4 = load i8, ptr @H5O_init_g, align 1, !tbaa !3, !range !7, !noundef !8
  %5 = trunc nuw i8 %4 to i1
  %6 = load i8, ptr @H5_libterm_g, align 1, !range !7
  %7 = trunc nuw i8 %6 to i1
  %8 = xor i1 %7, true
  %9 = select i1 %5, i1 true, i1 %8
  br i1 %9, label %10, label %H5O__attr_size.exit.thread, !prof !9

10:                                               ; preds = %3
  %11 = load i32, ptr %2, align 8, !tbaa !40
  %12 = add i32 %11, -3
  %switch = icmp ult i32 %12, -2
  %brmerge = or i1 %1, %switch
  br i1 %brmerge, label %20, label %13

13:                                               ; preds = %10
  %14 = tail call i64 @H5O__shared_size(ptr noundef %0, ptr noundef nonnull %2) #12
  %15 = icmp eq i64 %14, 0
  br i1 %15, label %16, label %H5O__attr_size.exit.thread

16:                                               ; preds = %13
  %17 = load i64, ptr @H5E_OHDR_g, align 8, !tbaa !10
  %18 = load i64, ptr @H5E_CANTGET_g, align 8, !tbaa !10
  %19 = tail call i32 (ptr, ptr, i32, i64, i64, ptr, ...) @H5E_printf_stack(ptr noundef nonnull @.str.4, ptr noundef nonnull @__func__.H5O__attr_shared_size, i32 noundef 170, i64 noundef %17, i64 noundef %18, ptr noundef nonnull @.str.26) #12
  br label %H5O__attr_size.exit.thread

20:                                               ; preds = %10
  %21 = getelementptr inbounds nuw i8, ptr %2, i64 96
  %22 = load ptr, ptr %21, align 8, !tbaa !14
  %23 = getelementptr inbounds nuw i8, ptr %22, i64 8
  %24 = load ptr, ptr %23, align 8, !tbaa !32
  %25 = tail call i64 @strlen(ptr noundef nonnull dereferenceable(1) %24) #13
  %26 = load i8, ptr %22, align 8, !tbaa !24
  switch i8 %26, label %H5O__attr_size.exit.thread [
    i8 1, label %27
    i8 2, label %43
    i8 3, label %54
  ]

27:                                               ; preds = %20
  %28 = and i64 %25, -8
  %29 = getelementptr inbounds nuw i8, ptr %22, i64 32
  %30 = load i64, ptr %29, align 8, !tbaa !29
  %31 = add i64 %30, 7
  %32 = and i64 %31, -8
  %33 = getelementptr inbounds nuw i8, ptr %22, i64 48
  %34 = load i64, ptr %33, align 8, !tbaa !30
  %35 = add i64 %34, 7
  %36 = and i64 %35, -8
  %37 = getelementptr inbounds nuw i8, ptr %22, i64 64
  %38 = load i64, ptr %37, align 8, !tbaa !37
  %39 = add i64 %28, 16
  %40 = add i64 %39, %32
  %41 = add i64 %40, %38
  %42 = add i64 %41, %36
  br label %H5O__attr_size.exit

43:                                               ; preds = %20
  %44 = getelementptr inbounds nuw i8, ptr %22, i64 32
  %45 = load i64, ptr %44, align 8, !tbaa !29
  %46 = getelementptr inbounds nuw i8, ptr %22, i64 48
  %47 = load i64, ptr %46, align 8, !tbaa !30
  %48 = getelementptr inbounds nuw i8, ptr %22, i64 64
  %49 = load i64, ptr %48, align 8, !tbaa !37
  %50 = add i64 %25, 9
  %51 = add i64 %50, %45
  %52 = add i64 %51, %47
  %53 = add i64 %52, %49
  br label %H5O__attr_size.exit

54:                                               ; preds = %20
  %55 = getelementptr inbounds nuw i8, ptr %22, i64 32
  %56 = load i64, ptr %55, align 8, !tbaa !29
  %57 = getelementptr inbounds nuw i8, ptr %22, i64 48
  %58 = load i64, ptr %57, align 8, !tbaa !30
  %59 = getelementptr inbounds nuw i8, ptr %22, i64 64
  %60 = load i64, ptr %59, align 8, !tbaa !37
  %61 = add i64 %25, 10
  %62 = add i64 %61, %56
  %63 = add i64 %62, %58
  %64 = add i64 %63, %60
  br label %H5O__attr_size.exit

H5O__attr_size.exit:                              ; preds = %27, %43, %54
  %.0.i = phi i64 [ %42, %27 ], [ %53, %43 ], [ %64, %54 ]
  %65 = icmp eq i64 %.0.i, 0
  br i1 %65, label %66, label %H5O__attr_size.exit.thread

66:                                               ; preds = %H5O__attr_size.exit
  %67 = load i64, ptr @H5E_OHDR_g, align 8, !tbaa !10
  %68 = load i64, ptr @H5E_CANTGET_g, align 8, !tbaa !10
  %69 = tail call i32 (ptr, ptr, i32, i64, i64, ptr, ...) @H5E_printf_stack(ptr noundef nonnull @.str.4, ptr noundef nonnull @__func__.H5O__attr_shared_size, i32 noundef 175, i64 noundef %67, i64 noundef %68, ptr noundef nonnull @.str.27) #12
  br label %H5O__attr_size.exit.thread

H5O__attr_size.exit.thread:                       ; preds = %20, %16, %66, %H5O__attr_size.exit, %13, %3
  %.0 = phi i64 [ 0, %66 ], [ %.0.i, %H5O__attr_size.exit ], [ 0, %16 ], [ %14, %13 ], [ 0, %3 ], [ 8, %20 ]
  ret i64 %.0
}